target datalayout = "e-m:e-p270:32:32-p271:32:32-p272:64:64-i64:64-i128:128-f80:128-n8:16:32:64-S128"
target triple = "x86_64-pc-linux-gnu"

%struct.VduseDev = type { ptr, [256 x %struct.VduseIovaRegion], i32, ptr, i32, i32, i16, i16, i64, ptr, i32, i32, ptr, ptr }
%struct.VduseIovaRegion = type { i64, i64, i64, i64 }
%struct.vduse_iotlb_entry = type { i64, i64, i64, i8 }

@.str.16 = private unnamed_addr constant [40 x i8] c"../qemu/subprojects/libvduse/libvduse.c\00", align 1
@.str.23 = private unnamed_addr constant [21 x i8] c"i < MAX_IOVA_REGIONS\00", align 1
@__PRETTY_FUNCTION__.vduse_iova_add_region = private unnamed_addr constant [78 x i8] c"int vduse_iova_add_region(VduseDev *, int, uint64_t, uint64_t, uint64_t, int)\00", align 1

; Function Attrs: nounwind uwtable
define internal i32 @vduse_iova_add_region(ptr noundef %0, i32 noundef %1, i64 noundef %2, i64 noundef %3, i64 noundef %4, i32 noundef %5) #0 {
  %7 = alloca i32, align 4
  %8 = alloca ptr, align 8
  %9 = alloca i32, align 4
  %10 = alloca i64, align 8
  %11 = alloca i64, align 8
  %12 = alloca i64, align 8
  %13 = alloca i32, align 4
  %14 = alloca i32, align 4
  %15 = alloca i64, align 8
  %16 = alloca ptr, align 8
  %17 = alloca i32, align 4
  store ptr %0, ptr %8, align 8
  store i32 %1, ptr %9, align 4
  store i64 %2, ptr %10, align 8
  store i64 %3, ptr %11, align 8
  store i64 %4, ptr %12, align 8
  store i32 %5, ptr %13, align 4
  call void @llvm.lifetime.start.p0(i64 4, ptr %14) #13
  store i32 0, ptr %14, align 4, !annotation !4
  call void @llvm.lifetime.start.p0(i64 8, ptr %15) #13
  %18 = load i64, ptr %12, align 8
  %19 = load i64, ptr %11, align 8
  %20 = sub i64 %18, %19
  %21 = add i64 %20, 1
  store i64 %21, ptr %15, align 8
  call void @llvm.lifetime.start.p0(i64 8, ptr %16) #13
  %22 = load i64, ptr %15, align 8
  %23 = load i64, ptr %10, align 8
  %24 = add i64 %22, %23
  %25 = load i32, ptr %13, align 4
  %26 = load i32, ptr %9, align 4
  %27 = call ptr @mmap64(ptr noundef null, i64 noundef %24, i32 noundef %25, i32 noundef 1, i32 noundef %26, i64 noundef 0) #13
  store ptr %27, ptr %16, align 8
  %28 = load ptr, ptr %16, align 8
  %29 = icmp eq ptr %28, inttoptr (i64 -1 to ptr)
  br i1 %29, label %30, label %33

30:                                               ; preds = %6
  %31 = load i32, ptr %9, align 4
  %32 = call i32 @close(i32 noundef %31)
  store i32 -22, ptr %7, align 4
  store i32 1, ptr %17, align 4
  br label %92

33:                                               ; preds = %6
  store i32 0, ptr %14, align 4
  br label %34

34:                                               ; preds = %81, %33
  %35 = load i32, ptr %14, align 4
  %36 = icmp slt i32 %35, 256
  br i1 %36, label %37, label %84

37:                                               ; preds = %34
  %38 = load ptr, ptr %8, align 8
  %39 = getelementptr inbounds nuw %struct.VduseDev, ptr %38, i32 0, i32 1
  %40 = load i32, ptr %14, align 4
  %41 = sext i32 %40 to i64
  %42 = getelementptr inbounds [256 x %struct.VduseIovaRegion], ptr %39, i64 0, i64 %41
  %43 = getelementptr inbounds nuw %struct.VduseIovaRegion, ptr %42, i32 0, i32 3
  %44 = load i64, ptr %43, align 8
  %45 = icmp ne i64 %44, 0
  br i1 %45, label %80, label %46

46:                                               ; preds = %37
  %47 = load ptr, ptr %16, align 8
  %48 = ptrtoint ptr %47 to i64
  %49 = load ptr, ptr %8, align 8
  %50 = getelementptr inbounds nuw %struct.VduseDev, ptr %49, i32 0, i32 1
  %51 = load i32, ptr %14, align 4
  %52 = sext i32 %51 to i64
  %53 = getelementptr inbounds [256 x %struct.VduseIovaRegion], ptr %50, i64 0, i64 %52
  %54 = getelementptr inbounds nuw %struct.VduseIovaRegion, ptr %53, i32 0, i32 3
  store i64 %48, ptr %54, align 8
  %55 = load i64, ptr %10, align 8
  %56 = load ptr, ptr %8, align 8
  %57 = getelementptr inbounds nuw %struct.VduseDev, ptr %56, i32 0, i32 1
  %58 = load i32, ptr %14, align 4
  %59 = sext i32 %58 to i64
  %60 = getelementptr inbounds [256 x %struct.VduseIovaRegion], ptr %57, i64 0, i64 %59
  %61 = getelementptr inbounds nuw %struct.VduseIovaRegion, ptr %60, i32 0, i32 2
  store i64 %55, ptr %61, align 8
  %62 = load i64, ptr %11, align 8
  %63 = load ptr, ptr %8, align 8
  %64 = getelementptr inbounds nuw %struct.VduseDev, ptr %63, i32 0, i32 1
  %65 = load i32, ptr %14, align 4
  %66 = sext i32 %65 to i64
  %67 = getelementptr inbounds [256 x %struct.VduseIovaRegion], ptr %64, i64 0, i64 %66
  %68 = getelementptr inbounds nuw %struct.VduseIovaRegion, ptr %67, i32 0, i32 0
  store i64 %62, ptr %68, align 8
  %69 = load i64, ptr %15, align 8
  %70 = load ptr, ptr %8, align 8
  %71 = getelementptr inbounds nuw %struct.VduseDev, ptr %70, i32 0, i32 1
  %72 = load i32, ptr %14, align 4
  %73 = sext i32 %72 to i64
  %74 = getelementptr inbounds [256 x %struct.VduseIovaRegion], ptr %71, i64 0, i64 %73
  %75 = getelementptr inbounds nuw %struct.VduseIovaRegion, ptr %74, i32 0, i32 1
  store i64 %69, ptr %75, align 8
  %76 = load ptr, ptr %8, align 8
  %77 = getelementptr inbounds nuw %struct.VduseDev, ptr %76, i32 0, i32 2
  %78 = load i32, ptr %77, align 8
  %79 = add i32 %78, 1
  store i32 %79, ptr %77, align 8
  br label %84

80:                                               ; preds = %37
  br label %81

81:                                               ; preds = %80
  %82 = load i32, ptr %14, align 4
  %83 = add i32 %82, 1
  store i32 %83, ptr %14, align 4
  br label %34

84:                                               ; preds = %46, %34
  %85 = load i32, ptr %14, align 4
  %86 = icmp slt i32 %85, 256
  br i1 %86, label %87, label %88

87:                                               ; preds = %84
  br label %89

88:                                               ; preds = %84
  call void @__assert_fail(ptr noundef @.str.23, ptr noundef @.str.16, i32 noundef 361, ptr noundef @__PRETTY_FUNCTION__.vduse_iova_add_region) #15
  unreachable

89:                                               ; preds = %87
  %90 = load i32, ptr %9, align 4
  %91 = call i32 @close(i32 noundef %90)
  store i32 0, ptr %7, align 4
  store i32 1, ptr %17, align 4
  br label %92

92:                                               ; preds = %89, %30
  call void @llvm.lifetime.end.p0(i64 8, ptr %16) #13
  call void @llvm.lifetime.end.p0(i64 8, ptr %15) #13
  call void @llvm.lifetime.end.p0(i64 4, ptr %14) #13
  %93 = load i32, ptr %7, align 4
  ret i32 %93
}

; Function Attrs: nounwind uwtable
define internal i32 @perm_to_prot(i8 noundef zeroext %0) #0 {
  %2 = alloca i8, align 1
  %3 = alloca i32, align 4
  store i8 %0, ptr %2, align 1
  call void @llvm.lifetime.start.p0(i64 4, ptr %3) #13
  store i32 0, ptr %3, align 4
  %4 = load i8, ptr %2, align 1
  %5 = zext i8 %4 to i32
  switch i32 %5, label %15 [
    i32 2, label %6
    i32 1, label %9
    i32 3, label %12
  ]

6:                                                ; preds = %1
  %7 = load i32, ptr %3, align 4
  %8 = or i32 %7, 2
  store i32 %8, ptr %3, align 4
  br label %16

9:                                                ; preds = %1
  %10 = load i32, ptr %3, align 4
  %11 = or i32 %10, 1
  store i32 %11, ptr %3, align 4
  br label %16

12:                                               ; preds = %1
  %13 = load i32, ptr %3, align 4
  %14 = or i32 %13, 3
  store i32 %14, ptr %3, align 4
  br label %16

15:                                               ; preds = %1
  br label %16

16:                                               ; preds = %15, %12, %9, %6
  %17 = load i32, ptr %3, align 4
  call void @llvm.lifetime.end.p0(i64 4, ptr %3) #13
  ret i32 %17
}

; Function Attrs: inlinehint nounwind uwtable
define internal ptr @iova_to_va(ptr noundef %0, ptr noundef %1, i64 noundef %2) #5 {
  %4 = alloca ptr, align 8
  %5 = alloca ptr, align 8
  %6 = alloca ptr, align 8
  %7 = alloca i64, align 8
  %8 = alloca i32, align 4
  %9 = alloca i32, align 4
  %10 = alloca %struct.vduse_iotlb_entry, align 8
  %11 = alloca ptr, align 8
  %12 = alloca i32, align 4
  store ptr %0, ptr %5, align 8
  store ptr %1, ptr %6, align 8
  store i64 %2, ptr %7, align 8
  call void @llvm.lifetime.start.p0(i64 4, ptr %8) #13
  store i32 0, ptr %8, align 4, !annotation !4
  call void @llvm.lifetime.start.p0(i64 4, ptr %9) #13
  store i32 0, ptr %9, align 4, !annotation !4
  call void @llvm.lifetime.start.p0(i64 32, ptr %10) #13
  call void @llvm.memset.p0.i64(ptr align 8 %10, i8 0, i64 32, i1 false), !annotation !4
  store i32 0, ptr %8, align 4
  br label %13

13:                                               ; preds = %86, %3
  %14 = load i32, ptr %8, align 4
  %15 = icmp slt i32 %14, 256
  br i1 %15, label %16, label %89

16:                                               ; preds = %13
  call void @llvm.lifetime.start.p0(i64 8, ptr %11) #13
  %17 = load ptr, ptr %5, align 8
  %18 = getelementptr inbounds nuw %struct.VduseDev, ptr %17, i32 0, i32 1
  %19 = load i32, ptr %8, align 4
  %20 = sext i32 %19 to i64
  %21 = getelementptr inbounds [256 x %struct.VduseIovaRegion], ptr %18, i64 0, i64 %20
  store ptr %21, ptr %11, align 8
  %22 = load ptr, ptr %11, align 8
  %23 = getelementptr inbounds nuw %struct.VduseIovaRegion, ptr %22, i32 0, i32 3
  %24 = load i64, ptr %23, align 8
  %25 = icmp ne i64 %24, 0
  br i1 %25, label %27, label %26

26:                                               ; preds = %16
  store i32 4, ptr %12, align 4
  br label %83

27:                                               ; preds = %16
  %28 = load i64, ptr %7, align 8
  %29 = load ptr, ptr %11, align 8
  %30 = getelementptr inbounds nuw %struct.VduseIovaRegion, ptr %29, i32 0, i32 0
  %31 = load i64, ptr %30, align 8
  %32 = icmp uge i64 %28, %31
  br i1 %32, label %33, label %82

33:                                               ; preds = %27
  %34 = load i64, ptr %7, align 8
  %35 = load ptr, ptr %11, align 8
  %36 = getelementptr inbounds nuw %struct.VduseIovaRegion, ptr %35, i32 0, i32 0
  %37 = load i64, ptr %36, align 8
  %38 = load ptr, ptr %11, align 8
  %39 = getelementptr inbounds nuw %struct.VduseIovaRegion, ptr %38, i32 0, i32 1
  %40 = load i64, ptr %39, align 8
  %41 = add i64 %37, %40
  %42 = icmp ult i64 %34, %41
  br i1 %42, label %43, label %82

43:                                               ; preds = %33
  %44 = load i64, ptr %7, align 8
  %45 = load ptr, ptr %6, align 8
  %46 = load i64, ptr %45, align 8
  %47 = add i64 %44, %46
  %48 = load ptr, ptr %11, align 8
  %49 = getelementptr inbounds nuw %struct.VduseIovaRegion, ptr %48, i32 0, i32 0
  %50 = load i64, ptr %49, align 8
  %51 = load ptr, ptr %11, align 8
  %52 = getelementptr inbounds nuw %struct.VduseIovaRegion, ptr %51, i32 0, i32 1
  %53 = load i64, ptr %52, align 8
  %54 = add i64 %50, %53
  %55 = icmp ugt i64 %47, %54
  br i1 %55, label %56, label %67

56:                                               ; preds = %43
  %57 = load ptr, ptr %11, align 8
  %58 = getelementptr inbounds nuw %struct.VduseIovaRegion, ptr %57, i32 0, i32 0
  %59 = load i64, ptr %58, align 8
  %60 = load ptr, ptr %11, align 8
  %61 = getelementptr inbounds nuw %struct.VduseIovaRegion, ptr %60, i32 0, i32 1
  %62 = load i64, ptr %61, align 8
  %63 = add i64 %59, %62
  %64 = load i64, ptr %7, align 8
  %65 = sub i64 %63, %64
  %66 = load ptr, ptr %6, align 8
  store i64 %65, ptr %66, align 8
  br label %67

67:                                               ; preds = %56, %43
  %68 = load i64, ptr %7, align 8
  %69 = load ptr, ptr %11, align 8
  %70 = getelementptr inbounds nuw %struct.VduseIovaRegion, ptr %69, i32 0, i32 0
  %71 = load i64, ptr %70, align 8
  %72 = sub i64 %68, %71
  %73 = load ptr, ptr %11, align 8
  %74 = getelementptr inbounds nuw %struct.VduseIovaRegion, ptr %73, i32 0, i32 3
  %75 = load i64, ptr %74, align 8
  %76 = add i64 %72, %75
  %77 = load ptr, ptr %11, align 8
  %78 = getelementptr inbounds nuw %struct.VduseIovaRegion, ptr %77, i32 0, i32 2
  %79 = load i64, ptr %78, align 8
  %80 = add i64 %76, %79
  %81 = inttoptr i64 %80 to ptr
  store ptr %81, ptr %4, align 8
  store i32 1, ptr %12, align 4
  br label %83

82:                                               ; preds = %33, %27
  store i32 0, ptr %12, align 4
  br label %83

83:                                               ; preds = %82, %67, %26
  call void @llvm.lifetime.end.p0(i64 8, ptr %11) #13
  %84 = load i32, ptr %12, align 4
  switch i32 %84, label %122 [
    i32 0, label %85
    i32 4, label %86
  ]

85:                                               ; preds = %83
  br label %86

86:                                               ; preds = %85, %83
  %87 = load i32, ptr %8, align 4
  %88 = add i32 %87, 1
  store i32 %88, ptr %8, align 4
  br label %13

89:                                               ; preds = %13
  %90 = load i64, ptr %7, align 8
  %91 = getelementptr inbounds nuw %struct.vduse_iotlb_entry, ptr %10, i32 0, i32 1
  store i64 %90, ptr %91, align 8
  %92 = load i64, ptr %7, align 8
  %93 = add i64 %92, 1
  %94 = getelementptr inbounds nuw %struct.vduse_iotlb_entry, ptr %10, i32 0, i32 2
  store i64 %93, ptr %94, align 8
  %95 = load ptr, ptr %5, align 8
  %96 = getelementptr inbounds nuw %struct.VduseDev, ptr %95, i32 0, i32 10
  %97 = load i32, ptr %96, align 8
  %98 = call i32 (i32, i64, ...) @ioctl(i32 noundef %97, i64 noundef 3223355664, ptr noundef %10) #13
  store i32 %98, ptr %9, align 4
  %99 = load i32, ptr %9, align 4
  %100 = icmp slt i32 %99, 0
  br i1 %100, label %101, label %102

101:                                              ; preds = %89
  store ptr null, ptr %4, align 8
  store i32 1, ptr %12, align 4
  br label %122

102:                                              ; preds = %89
  %103 = load ptr, ptr %5, align 8
  %104 = load i32, ptr %9, align 4
  %105 = getelementptr inbounds nuw %struct.vduse_iotlb_entry, ptr %10, i32 0, i32 0
  %106 = load i64, ptr %105, align 8
  %107 = getelementptr inbounds nuw %struct.vduse_iotlb_entry, ptr %10, i32 0, i32 1
  %108 = load i64, ptr %107, align 8
  %109 = getelementptr inbounds nuw %struct.vduse_iotlb_entry, ptr %10, i32 0, i32 2
  %110 = load i64, ptr %109, align 8
  %111 = getelementptr inbounds nuw %struct.vduse_iotlb_entry, ptr %10, i32 0, i32 3
  %112 = load i8, ptr %111, align 8
  %113 = call i32 @perm_to_prot(i8 noundef zeroext %112)
  %114 = call i32 @vduse_iova_add_region(ptr noundef %103, i32 noundef %104, i64 noundef %106, i64 noundef %108, i64 noundef %110, i32 noundef %113)
  %115 = icmp ne i32 %114, 0
  br i1 %115, label %121, label %116

116:                                              ; preds = %102
  %117 = load ptr, ptr %5, align 8
  %118 = load ptr, ptr %6, align 8
  %119 = load i64, ptr %7, align 8
  %120 = call ptr @iova_to_va(ptr noundef %117, ptr noundef %118, i64 noundef %119)
  store ptr %120, ptr %4, align 8
  store i32 1, ptr %12, align 4
  br label %122

121:                                              ; preds = %102
  store ptr null, ptr %4, align 8
  store i32 1, ptr %12, align 4
  br label %122

122:                                              ; preds = %121, %116, %101, %83
  call void @llvm.lifetime.end.p0(i64 32, ptr %10) #13
  call void @llvm.lifetime.end.p0(i64 4, ptr %9) #13
  call void @llvm.lifetime.end.p0(i64 4, ptr %8) #13
  %123 = load ptr, ptr %4, align 8
  ret ptr %123
}