; Function Attrs: inlinehint nounwind uwtable
define internal fastcc ptr @iova_to_va(ptr noundef captures(none) %0, ptr noundef nonnull captures(none) %1, i64 noundef %2) unnamed_addr #16 {
  %4 = alloca %struct.vduse_iotlb_entry, align 8
  call void @llvm.lifetime.start.p0(i64 32, ptr nonnull %4) #20
  %5 = getelementptr inbounds nuw i8, ptr %0, i64 8
  br label %6

6:                                                ; preds = %3, %33
  %indvars.iv = phi i64 [ 0, %3 ], [ %indvars.iv.next, %33 ]
  %7 = getelementptr inbounds nuw [256 x %struct.VduseIovaRegion], ptr %5, i64 0, i64 %indvars.iv
  %8 = getelementptr inbounds nuw i8, ptr %7, i64 24
  %9 = load i64, ptr %8, align 8
  %.not38 = icmp eq i64 %9, 0
  br i1 %.not38, label %33, label %10

10:                                               ; preds = %6
  %11 = load i64, ptr %7, align 8
  %.not39 = icmp ult i64 %2, %11
  br i1 %.not39, label %33, label %12

12:                                               ; preds = %10
  %13 = getelementptr inbounds nuw i8, ptr %7, i64 8
  %14 = load i64, ptr %13, align 8
  %15 = add i64 %14, %11
  %16 = icmp ult i64 %2, %15
  br i1 %16, label %17, label %33

17:                                               ; preds = %12
  %18 = load i64, ptr %1, align 8
  %19 = add i64 %18, %2
  %20 = icmp ugt i64 %19, %15
  br i1 %20, label %21, label %24

21:                                               ; preds = %17
  %22 = getelementptr inbounds nuw i8, ptr %7, i64 24
  %23 = sub i64 %15, %2
  store i64 %23, ptr %1, align 8
  %.pre = load i64, ptr %7, align 8
  %.pre60 = load i64, ptr %22, align 8
  br label %24

24:                                               ; preds = %17, %21
  %25 = phi i64 [ %9, %17 ], [ %.pre60, %21 ]
  %26 = phi i64 [ %11, %17 ], [ %.pre, %21 ]
  %27 = sub i64 %2, %26
  %28 = add i64 %27, %25
  %29 = getelementptr inbounds nuw i8, ptr %7, i64 16
  %30 = load i64, ptr %29, align 8
  %31 = add i64 %28, %30
  %32 = inttoptr i64 %31 to ptr
  br label %68

33:                                               ; preds = %6, %12, %10
  %indvars.iv.next = add nuw nsw i64 %indvars.iv, 1
  %exitcond.not = icmp eq i64 %indvars.iv.next, 256
  br i1 %exitcond.not, label %34, label %6

34:                                               ; preds = %33
  call void @llvm.memset.p0.i64(ptr noundef nonnull align 8 dereferenceable(32) %4, i8 0, i64 32, i1 false), !annotation !11
  %35 = getelementptr inbounds nuw i8, ptr %4, i64 8
  store i64 %2, ptr %35, align 8
  %36 = add i64 %2, 1
  %37 = getelementptr inbounds nuw i8, ptr %4, i64 16
  store i64 %36, ptr %37, align 8
  %38 = getelementptr inbounds nuw i8, ptr %0, i64 8248
  %39 = load i32, ptr %38, align 8
  %40 = call i32 (i32, i64, ...) @ioctl(i32 noundef %39, i64 noundef 3223355664, ptr noundef nonnull %4) #20
  %41 = icmp slt i32 %40, 0
  br i1 %41, label %68, label %perm_to_prot.exit

perm_to_prot.exit:                                ; preds = %34
  %42 = load i64, ptr %4, align 8
  %43 = load i64, ptr %35, align 8
  %44 = load i64, ptr %37, align 8
  %45 = getelementptr inbounds nuw i8, ptr %4, i64 24
  %46 = load i8, ptr %45, align 8
  %switch.tableidx = add i8 %46, -1
  %47 = icmp ult i8 %switch.tableidx, 3
  %switch.idx.cast = zext i8 %switch.tableidx to i32
  %switch.offset = add nuw nsw i32 %switch.idx.cast, 1
  %.0.i = select i1 %47, i32 %switch.offset, i32 0
  %48 = sub i64 %44, %43
  %49 = add i64 %48, 1
  %50 = add i64 %49, %42
  %51 = call ptr @mmap64(ptr noundef null, i64 noundef %50, i32 noundef range(i32 0, 4) %.0.i, i32 noundef 1, i32 noundef range(i32 0, -2147483648) %40, i64 noundef 0) #20
  %52 = icmp eq ptr %51, inttoptr (i64 -1 to ptr)
  br i1 %52, label %vduse_iova_add_region.exit, label %.preheader.i

53:                                               ; preds = %.preheader.i
  %indvars.iv.next.i = add nuw nsw i64 %indvars.iv.i, 1
  %exitcond.not.i = icmp eq i64 %indvars.iv.next.i, 256
  br i1 %exitcond.not.i, label %.critedge.i, label %.preheader.i

.preheader.i:                                     ; preds = %perm_to_prot.exit, %53
  %indvars.iv.i = phi i64 [ %indvars.iv.next.i, %53 ], [ 0, %perm_to_prot.exit ]
  %54 = getelementptr inbounds nuw [256 x %struct.VduseIovaRegion], ptr %5, i64 0, i64 %indvars.iv.i
  %55 = getelementptr inbounds nuw i8, ptr %54, i64 24
  %56 = load i64, ptr %55, align 8
  %.not.i = icmp eq i64 %56, 0
  br i1 %.not.i, label %58, label %53

.critedge.i:                                      ; preds = %53
  call void @__assert_fail(ptr noundef nonnull @.str.23, ptr noundef nonnull @.str.16, i32 noundef 361, ptr noundef nonnull @__PRETTY_FUNCTION__.vduse_iova_add_region) #24
  unreachable

vduse_iova_add_region.exit:                       ; preds = %perm_to_prot.exit
  %57 = call i32 @close(i32 noundef range(i32 0, -2147483648) %40) #20
  br label %68

58:                                               ; preds = %.preheader.i
  %59 = getelementptr inbounds nuw i8, ptr %54, i64 24
  %60 = ptrtoint ptr %51 to i64
  store i64 %60, ptr %59, align 8
  %61 = getelementptr inbounds nuw i8, ptr %54, i64 16
  store i64 %42, ptr %61, align 8
  store i64 %43, ptr %54, align 8
  %62 = getelementptr inbounds nuw i8, ptr %54, i64 8
  store i64 %49, ptr %62, align 8
  %63 = getelementptr inbounds nuw i8, ptr %0, i64 8200
  %64 = load i32, ptr %63, align 8
  %65 = add i32 %64, 1
  store i32 %65, ptr %63, align 8
  %66 = call i32 @close(i32 noundef range(i32 0, -2147483648) %40) #20
  %67 = call fastcc ptr @iova_to_va(ptr noundef nonnull %0, ptr noundef %1, i64 noundef %2)
  br label %68

68:                                               ; preds = %vduse_iova_add_region.exit, %24, %34, %58
  %.2 = phi ptr [ %32, %24 ], [ %67, %58 ], [ null, %34 ], [ null, %vduse_iova_add_region.exit ]
  call void @llvm.lifetime.end.p0(i64 32, ptr nonnull %4) #20
  ret ptr %.2
}